libgflags_nothreads.so.2.2:_ZN6gflags10GetArgvSumEv
libgflags_nothreads.so.2.2:_ZN6gflags11BoolFromEnvEPKcb
libgflags_nothreads.so.2.2:_ZN6gflags11GetAllFlagsEPSt6vectorINS_19CommandLineFlagInfoESaIS1_EE
libgflags_nothreads.so.2.2:_ZN6gflags12Int32FromEnvEPKci
libgflags_nothreads.so.2.2:_ZN6gflags12Int64FromEnvEPKcl
libgflags_nothreads.so.2.2:_ZN6gflags12ProgramUsageEv
libgflags_nothreads.so.2.2:_ZN6gflags13DoubleFromEnvEPKcd
libgflags_nothreads.so.2.2:_ZN6gflags13StringFromEnvEPKcS1_
libgflags_nothreads.so.2.2:_ZN6gflags13Uint32FromEnvEPKcj
libgflags_nothreads.so.2.2:_ZN6gflags13Uint64FromEnvEPKcm
libgflags_nothreads.so.2.2:_ZN6gflags13VersionStringEv
libgflags_nothreads.so.2.2:_ZN6gflags15DescribeOneFlagB5cxx11ERKNS_19CommandLineFlagInfoE
libgflags_nothreads.so.2.2:_ZN6gflags15SetUsageMessageERKNSt7__cxx1112basic_stringIcSt11char_traitsIcESaIcEEE
libgflags_nothreads.so.2.2:_ZN6gflags16SetVersionStringERKNSt7__cxx1112basic_stringIcSt11char_traitsIcESaIcEEE
libgflags_nothreads.so.2.2:_ZN6gflags17ReadFromFlagsFileERKNSt7__cxx1112basic_stringIcSt11char_traitsIcESaIcEEEPKcb
libgflags_nothreads.so.2.2:_ZN6gflags18ShowUsageWithFlagsEPKc
libgflags_nothreads.so.2.2:_ZN6gflags19AppendFlagsIntoFileERKNSt7__cxx1112basic_stringIcSt11char_traitsIcESaIcEEEPKc
libgflags_nothreads.so.2.2:_ZN6gflags19ReadFlagsFromStringERKNSt7__cxx1112basic_stringIcSt11char_traitsIcESaIcEEEPKcb
libgflags_nothreads.so.2.2:_ZN6gflags20GetCommandLineOptionEPKcPNSt7__cxx1112basic_stringIcSt11char_traitsIcESaIcEEE
libgflags_nothreads.so.2.2:_ZN6gflags20SetCommandLineOptionB5cxx11EPKcS1_
libgflags_nothreads.so.2.2:_ZN6gflags21ParseCommandLineFlagsEPiPPPcb
libgflags_nothreads.so.2.2:_ZN6gflags21ProgramInvocationNameEv
libgflags_nothreads.so.2.2:_ZN6gflags21RegisterFlagValidatorEPKNSt7__cxx1112basic_stringIcSt11char_traitsIcESaIcEEEPFbPKcRS6_E
libgflags_nothreads.so.2.2:_ZN6gflags21RegisterFlagValidatorEPKbPFbPKcbE
libgflags_nothreads.so.2.2:_ZN6gflags21RegisterFlagValidatorEPKdPFbPKcdE
libgflags_nothreads.so.2.2:_ZN6gflags21RegisterFlagValidatorEPKiPFbPKciE
libgflags_nothreads.so.2.2:_ZN6gflags21RegisterFlagValidatorEPKjPFbPKcjE
libgflags_nothreads.so.2.2:_ZN6gflags21RegisterFlagValidatorEPKlPFbPKclE
libgflags_nothreads.so.2.2:_ZN6gflags21RegisterFlagValidatorEPKmPFbPKcmE
libgflags_nothreads.so.2.2:_ZN6gflags22GetCommandLineFlagInfoEPKcPNS_19CommandLineFlagInfoE
libgflags_nothreads.so.2.2:_ZN6gflags24ShutDownCommandLineFlagsEv
libgflags_nothreads.so.2.2:_ZN6gflags25AllowCommandLineReparsingEv
libgflags_nothreads.so.2.2:_ZN6gflags26CommandlineFlagsIntoStringB5cxx11Ev
libgflags_nothreads.so.2.2:_ZN6gflags26HandleCommandLineHelpFlagsEv
libgflags_nothreads.so.2.2:_ZN6gflags26ProgramInvocationShortNameEv
libgflags_nothreads.so.2.2:_ZN6gflags26ShowUsageWithFlagsRestrictEPKcS1_
libgflags_nothreads.so.2.2:_ZN6gflags27GetCommandLineFlagInfoOrDieEPKc
libgflags_nothreads.so.2.2:_ZN6gflags28HandleCommandLineCompletionsEv
libgflags_nothreads.so.2.2:_ZN6gflags28ParseCommandLineNonHelpFlagsEPiPPPcb
libgflags_nothreads.so.2.2:_ZN6gflags28SetCommandLineOptionWithModeB5cxx11EPKcS1_NS_15FlagSettingModeE
libgflags_nothreads.so.2.2:_ZN6gflags30ReparseCommandLineNonHelpFlagsEv
libgflags_nothreads.so.2.2:_ZN6gflags7GetArgvEv
libgflags_nothreads.so.2.2:_ZN6gflags7SetArgvEiPPKc
libgflags_nothreads.so.2.2:_ZN6gflags8GetArgv0Ev
libgflags_nothreads.so.2.2:_ZN6gflags8GetArgvsB5cxx11Ev
libgflags_nothreads.so.2.2:_ZN6gflags9FlagSaverC1Ev
libgflags_nothreads.so.2.2:_ZN6gflags9FlagSaverC2Ev
libgflags_nothreads.so.2.2:_ZN6gflags9FlagSaverD1Ev
libgflags_nothreads.so.2.2:_ZN6gflags9FlagSaverD2Ev
libinference_engine.so.1:CreateCNNNetReader
libinference_engine.so.1:CreateDefaultAllocator
libinference_engine.so.1:GetInferenceEngineVersion
libinference_engine.so.1:_Z10joinCommasB5cxx11RSt6vectorIfSaIfEE
libinference_engine.so.1:_Z15checkWeightableRKSt3mapINSt7__cxx1112basic_stringIcSt11char_traitsIcESaIcEEESt10shared_ptrIN15InferenceEngine4BlobEESt4lessIS5_ESaISt4pairIKS5_S9_EEERKSt6vectorISJ_ImSaImEESaISL_EE16WeightableParamsRKSL_
libinference_engine.so.1:_Z16splitParseCommasRKNSt7__cxx1112basic_stringIcSt11char_traitsIcESaIcEEE
libinference_engine.so.1:_Z18CreateBlobFromDataRKSt10shared_ptrIN15InferenceEngine4DataEE
libinference_engine.so.1:_Z24make_blob_with_precisionRKN15InferenceEngine10TensorDescE
libinference_engine.so.1:_Z24make_blob_with_precisionRKN15InferenceEngine10TensorDescEPv
libinference_engine.so.1:_ZN13XMLParseUtils10GetIntAttrERKN4pugi8xml_nodeEPKc
libinference_engine.so.1:_ZN13XMLParseUtils10GetIntAttrERKN4pugi8xml_nodeEPKci
libinference_engine.so.1:_ZN13XMLParseUtils10GetStrAttrB5cxx11ERKN4pugi8xml_nodeEPKc
libinference_engine.so.1:_ZN13XMLParseUtils10GetStrAttrB5cxx11ERKN4pugi8xml_nodeEPKcS5_
libinference_engine.so.1:_ZN13XMLParseUtils11GetIntChildERKN4pugi8xml_nodeEPKci
libinference_engine.so.1:_ZN13XMLParseUtils11GetUIntAttrERKN4pugi8xml_nodeEPKc
libinference_engine.so.1:_ZN13XMLParseUtils11GetUIntAttrERKN4pugi8xml_nodeEPKcj
libinference_engine.so.1:_ZN13XMLParseUtils12GetFloatAttrERKN4pugi8xml_nodeEPKc
libinference_engine.so.1:_ZN13XMLParseUtils12GetFloatAttrERKN4pugi8xml_nodeEPKcf
libinference_engine.so.1:_ZN13XMLParseUtils16GetPrecisionAttrERKN4pugi8xml_nodeEPKc
libinference_engine.so.1:_ZN13XMLParseUtils16GetPrecisionAttrERKN4pugi8xml_nodeEPKcN15InferenceEngine9PrecisionE
libinference_engine.so.1:_ZN13XMLParseUtils16NameFromFilePathB5cxx11EPKc
libinference_engine.so.1:_ZN15InferenceEngine10ShapeInfer14DefaultChecker3runERKSt6vectorISt10shared_ptrINS_4DataEESaIS5_EERKNSt7__cxx1112basic_stringIcSt11char_traitsIcESaIcEEE
libinference_engine.so.1:_ZN15InferenceEngine10ShapeInfer15FakeInitializer21createInputControllerEPKNS_8CNNLayerE
libinference_engine.so.1:_ZN15InferenceEngine10ShapeInfer15FakeInitializer22createOutputControllerEPKNS_8CNNLayerE
libinference_engine.so.1:_ZN15InferenceEngine10ShapeInfer15FakeInitializer5checkEPKNS_8CNNLayerERKSt10shared_ptrINS_15IShapeInferImplEE
libinference_engine.so.1:_ZN15InferenceEngine10ShapeInfer15InputController11getIRShapesEv
libinference_engine.so.1:_ZN15InferenceEngine10ShapeInfer15InputController12applyChangesEv
libinference_engine.so.1:_ZN15InferenceEngine10ShapeInfer15InputController14setShapeByNameERKSt6vectorImSaImEERKNSt7__cxx1112basic_stringIcSt11char_traitsIcESaIcEEE
libinference_engine.so.1:_ZN15InferenceEngine10ShapeInfer15InputController15setShapeByIndexERKSt6vectorImSaImEEm
libinference_engine.so.1:_ZN15InferenceEngine10ShapeInfer15InputController16getIRShapeByNameERKNSt7__cxx1112basic_stringIcSt11char_traitsIcESaIcEEE
libinference_engine.so.1:_ZN15InferenceEngine10ShapeInfer15InputController17getPositionByNameERKNSt7__cxx1112basic_stringIcSt11char_traitsIcESaIcEEE
libinference_engine.so.1:_ZN15InferenceEngine10ShapeInfer15InputController19checkCorrespondenceEv
libinference_engine.so.1:_ZN15InferenceEngine10ShapeInfer15InputController19getIRShapesInternalEv
libinference_engine.so.1:_ZN15InferenceEngine10ShapeInfer15InputController5resetEv
libinference_engine.so.1:_ZN15InferenceEngine10ShapeInfer15InputController9getShapesEb
libinference_engine.so.1:_ZN15InferenceEngine10ShapeInfer15InputControllerC1ERKSt6vectorISt10shared_ptrINS_4DataEESaIS5_EERKNSt7__cxx1112basic_stringIcSt11char_traitsIcESaIcEEEbRKS3_INS0_14DefaultCheckerEE
libinference_engine.so.1:_ZN15InferenceEngine10ShapeInfer15InputControllerC2ERKSt6vectorISt10shared_ptrINS_4DataEESaIS5_EERKNSt7__cxx1112basic_stringIcSt11char_traitsIcESaIcEEEbRKS3_INS0_14DefaultCheckerEE
libinference_engine.so.1:_ZN15InferenceEngine10ShapeInfer15LauncherCreator19createInputLauncherEPKNS_8CNNLayerERKSt6vectorISt10shared_ptrINS_20IShapeInferExtensionEESaIS8_EE
libinference_engine.so.1:_ZN15InferenceEngine10ShapeInfer15LauncherCreator22createNotInputLauncherEPKNS_8CNNLayerERKSt6vectorISt10shared_ptrINS_20IShapeInferExtensionEESaIS8_EE
libinference_engine.so.1:_ZN15InferenceEngine10ShapeInfer15ReshapeLauncher10checkLayerEPNS_8CNNLayerE
libinference_engine.so.1:_ZN15InferenceEngine10ShapeInfer15ReshapeLauncher12applyChangesEPNS_8CNNLayerE
libinference_engine.so.1:_ZN15InferenceEngine10ShapeInfer15ReshapeLauncher14setShapeByNameERKSt6vectorImSaImEERKNSt7__cxx1112basic_stringIcSt11char_traitsIcESaIcEEE
libinference_engine.so.1:_ZN15InferenceEngine10ShapeInfer15ReshapeLauncher16setIRShapeByNameERKNSt7__cxx1112basic_stringIcSt11char_traitsIcESaIcEEE
libinference_engine.so.1:_ZN15InferenceEngine10ShapeInfer15ReshapeLauncher17setShapeInferImplERKSt10shared_ptrINS_15IShapeInferImplEE
libinference_engine.so.1:_ZN15InferenceEngine10ShapeInfer15ReshapeLauncher5resetEv
libinference_engine.so.1:_ZN15InferenceEngine10ShapeInfer15ReshapeLauncher7reshapeERKSt3setISt10shared_ptrIS1_ESt4lessIS4_ESaIS4_EE
libinference_engine.so.1:_ZN15InferenceEngine10ShapeInfer15ReshapeLauncherC1EPKNS_8CNNLayerERKSt10shared_ptrINS_15IShapeInferImplEERKS5_INS0_18DefaultInitializerEE
libinference_engine.so.1:_ZN15InferenceEngine10ShapeInfer15ReshapeLauncherC2EPKNS_8CNNLayerERKSt10shared_ptrINS_15IShapeInferImplEERKS5_INS0_18DefaultInitializerEE
libinference_engine.so.1:_ZN15InferenceEngine10ShapeInfer15ReshapeLauncherD0Ev
libinference_engine.so.1:_ZN15InferenceEngine10ShapeInfer15ReshapeLauncherD1Ev
libinference_engine.so.1:_ZN15InferenceEngine10ShapeInfer15ReshapeLauncherD2Ev
libinference_engine.so.1:_ZN15InferenceEngine10ShapeInfer16ConstInitializer5checkEPKNS_8CNNLayerERKSt10shared_ptrINS_15IShapeInferImplEE
libinference_engine.so.1:_ZN15InferenceEngine10ShapeInfer16InputInitializer5checkEPKNS_8CNNLayerERKSt10shared_ptrINS_15IShapeInferImplEE
libinference_engine.so.1:_ZN15InferenceEngine10ShapeInfer16OutputController15propagateShapesERKSt3setISt10shared_ptrINS0_15ReshapeLauncherEESt4lessIS5_ESaIS5_EE
libinference_engine.so.1:_ZN15InferenceEngine10ShapeInfer16OutputController9setShapesERKSt6vectorIS2_ImSaImEESaIS4_EE
libinference_engine.so.1:_ZN15InferenceEngine10ShapeInfer16OutputControllerC1ERKSt6vectorISt10shared_ptrINS_4DataEESaIS5_EERKNSt7__cxx1112basic_stringIcSt11char_traitsIcESaIcEEEbRKS3_INS0_14DefaultCheckerEE
libinference_engine.so.1:_ZN15InferenceEngine10ShapeInfer16OutputControllerC2ERKSt6vectorISt10shared_ptrINS_4DataEESaIS5_EERKNSt7__cxx1112basic_stringIcSt11char_traitsIcESaIcEEEbRKS3_INS0_14DefaultCheckerEE
libinference_engine.so.1:_ZN15InferenceEngine10ShapeInfer18DefaultInitializer21createInputControllerEPKNS_8CNNLayerE
libinference_engine.so.1:_ZN15InferenceEngine10ShapeInfer18DefaultInitializer22createOutputControllerEPKNS_8CNNLayerE
libinference_engine.so.1:_ZN15InferenceEngine10ShapeInfer18DefaultInitializer5checkEPKNS_8CNNLayerERKSt10shared_ptrINS_15IShapeInferImplEE
libinference_engine.so.1:_ZN15InferenceEngine10ShapeInfer19FakeReshapeLauncher7reshapeERKSt3setISt10shared_ptrINS0_15ReshapeLauncherEESt4lessIS5_ESaIS5_EE
libinference_engine.so.1:_ZN15InferenceEngine10ShapeInfer19FakeReshapeLauncherC1EPKNS_8CNNLayerERKSt10shared_ptrINS_15IShapeInferImplEE
libinference_engine.so.1:_ZN15InferenceEngine10ShapeInfer19FakeReshapeLauncherC2EPKNS_8CNNLayerERKSt10shared_ptrINS_15IShapeInferImplEE
libinference_engine.so.1:_ZN15InferenceEngine10ShapeInfer20ConstReshapeLauncher7reshapeERKSt3setISt10shared_ptrINS0_15ReshapeLauncherEESt4lessIS5_ESaIS5_EE
libinference_engine.so.1:_ZN15InferenceEngine10ShapeInfer20ConstReshapeLauncherC1EPKNS_8CNNLayerERKSt10shared_ptrINS_15IShapeInferImplEE
libinference_engine.so.1:_ZN15InferenceEngine10ShapeInfer20ConstReshapeLauncherC2EPKNS_8CNNLayerERKSt10shared_ptrINS_15IShapeInferImplEE
libinference_engine.so.1:_ZN15InferenceEngine10ShapeInfer20InputReshapeLauncher7reshapeERKSt3setISt10shared_ptrINS0_15ReshapeLauncherEESt4lessIS5_ESaIS5_EE
libinference_engine.so.1:_ZN15InferenceEngine10ShapeInfer20InputReshapeLauncherC1EPKNS_8CNNLayerERKSt10shared_ptrINS_15IShapeInferImplEERKS5_INS0_18DefaultInitializerEE
libinference_engine.so.1:_ZN15InferenceEngine10ShapeInfer20InputReshapeLauncherC2EPKNS_8CNNLayerERKSt10shared_ptrINS_15IShapeInferImplEERKS5_INS0_18DefaultInitializerEE
libinference_engine.so.1:_ZN15InferenceEngine10ShapeInfer20OutMemoryInitializer22createOutputControllerEPKNS_8CNNLayerE
libinference_engine.so.1:_ZN15InferenceEngine10ShapeInfer20OutMemoryInitializer5checkEPKNS_8CNNLayerERKSt10shared_ptrINS_15IShapeInferImplEE
libinference_engine.so.1:_ZN15InferenceEngine10ShapeInfer21OutputOnlyInitializer21createInputControllerEPKNS_8CNNLayerE
libinference_engine.so.1:_ZN15InferenceEngine10ShapeInfer21OutputOnlyInitializer22createOutputControllerEPKNS_8CNNLayerE
libinference_engine.so.1:_ZN15InferenceEngine10ShapeInfer21OutputOnlyInitializer5checkEPKNS_8CNNLayerERKSt10shared_ptrINS_15IShapeInferImplEE
libinference_engine.so.1:_ZN15InferenceEngine10ShapeInfer23BuiltInShapeInferHolder14GetImplsHolderEv
libinference_engine.so.1:_ZN15InferenceEngine10ShapeInfer23BuiltInShapeInferHolder14SetLogCallbackERNS_14IErrorListenerE
libinference_engine.so.1:_ZN15InferenceEngine10ShapeInfer23BuiltInShapeInferHolder17getPrimitiveTypesERPPcRjPNS_12ResponseDescE
libinference_engine.so.1:_ZN15InferenceEngine10ShapeInfer23BuiltInShapeInferHolder17getShapeInferImplERSt10shared_ptrINS_15IShapeInferImplEEPKcPNS_12ResponseDescE
libinference_engine.so.1:_ZN15InferenceEngine10ShapeInfer23BuiltInShapeInferHolder7AddImplERKNSt7__cxx1112basic_stringIcSt11char_traitsIcESaIcEEERKSt10shared_ptrINS_15IShapeInferImplEE
libinference_engine.so.1:_ZN15InferenceEngine10ShapeInfer24OutMemoryReshapeLauncher12applyChangesEPNS_8CNNLayerE
libinference_engine.so.1:_ZN15InferenceEngine10ShapeInfer24OutMemoryReshapeLauncher5resetEv
libinference_engine.so.1:_ZN15InferenceEngine10ShapeInfer24OutMemoryReshapeLauncher7reshapeERKSt3setISt10shared_ptrINS0_15ReshapeLauncherEESt4lessIS5_ESaIS5_EE
libinference_engine.so.1:_ZN15InferenceEngine10ShapeInfer24OutMemoryReshapeLauncherC1EPKNS_8CNNLayerERKSt10shared_ptrINS_15IShapeInferImplEE
libinference_engine.so.1:_ZN15InferenceEngine10ShapeInfer24OutMemoryReshapeLauncherC2EPKNS_8CNNLayerERKSt10shared_ptrINS_15IShapeInferImplEE
libinference_engine.so.1:_ZN15InferenceEngine10ShapeInfer25OutputOnlyReshapeLauncher12applyChangesEPNS_8CNNLayerE
libinference_engine.so.1:_ZN15InferenceEngine10ShapeInfer25OutputOnlyReshapeLauncher14setShapeByNameERKSt6vectorImSaImEERKNSt7__cxx1112basic_stringIcSt11char_traitsIcESaIcEEE
libinference_engine.so.1:_ZN15InferenceEngine10ShapeInfer25OutputOnlyReshapeLauncher16setIRShapeByNameERKNSt7__cxx1112basic_stringIcSt11char_traitsIcESaIcEEE
libinference_engine.so.1:_ZN15InferenceEngine10ShapeInfer25OutputOnlyReshapeLauncher5resetEv
libinference_engine.so.1:_ZN15InferenceEngine10ShapeInfer25OutputOnlyReshapeLauncherC1EPKNS_8CNNLayerERKSt10shared_ptrINS_15IShapeInferImplEERKS5_INS0_18DefaultInitializerEE
libinference_engine.so.1:_ZN15InferenceEngine10ShapeInfer25OutputOnlyReshapeLauncherC2EPKNS_8CNNLayerERKSt10shared_ptrINS_15IShapeInferImplEERKS5_INS0_18DefaultInitializerEE
libinference_engine.so.1:_ZN15InferenceEngine10ShapeInfer8Reshaper12AddExtensionERKSt10shared_ptrINS_20IShapeInferExtensionEE
libinference_engine.so.1:_ZN15InferenceEngine10ShapeInfer8Reshaper25getTypeNamesFromExtensionB5cxx11ERKSt10shared_ptrINS_20IShapeInferExtensionEE
libinference_engine.so.1:_ZN15InferenceEngine10ShapeInfer8Reshaper3runERKSt3mapINSt7__cxx1112basic_stringIcSt11char_traitsIcESaIcEEESt6vectorImSaImEESt4lessIS8_ESaISt4pairIKS8_SB_EEE
libinference_engine.so.1:_ZN15InferenceEngine10ShapeInfer8ReshaperC1ERKNS_11ICNNNetworkERKSt10shared_ptrINS0_15LauncherCreatorEE
libinference_engine.so.1:_ZN15InferenceEngine10ShapeInfer8ReshaperC2ERKNS_11ICNNNetworkERKSt10shared_ptrINS0_15LauncherCreatorEE
libinference_engine.so.1:_ZN15InferenceEngine10StagedTask11resetStagesEv
libinference_engine.so.1:_ZN15InferenceEngine10StagedTask21runNoThrowNoBusyCheckEv
libinference_engine.so.1:_ZN15InferenceEngine10StagedTask8getStageEv
libinference_engine.so.1:_ZN15InferenceEngine10StagedTask9stageDoneEv
libinference_engine.so.1:_ZN15InferenceEngine10StagedTaskC1ESt8functionIFvvEEm
libinference_engine.so.1:_ZN15InferenceEngine10StagedTaskC1Ev
libinference_engine.so.1:_ZN15InferenceEngine10StagedTaskC2ESt8functionIFvvEEm
libinference_engine.so.1:_ZN15InferenceEngine10StagedTaskC2Ev
libinference_engine.so.1:_ZN15InferenceEngine10TensorDesc15getLayoutByDimsESt6vectorImSaImEE
libinference_engine.so.1:_ZN15InferenceEngine10TensorDesc7reshapeERKSt6vectorImSaImEENS_6LayoutE
libinference_engine.so.1:_ZN15InferenceEngine10TensorDesc7reshapeERKSt6vectorImSaImEERKNS_12BlockingDescE
libinference_engine.so.1:_ZN15InferenceEngine10TensorDesc7setDimsERKSt6vectorImSaImEE
libinference_engine.so.1:_ZN15InferenceEngine10TensorDescC1ERKNS_9PrecisionENS_6LayoutE
libinference_engine.so.1:_ZN15InferenceEngine10TensorDescC1ERKNS_9PrecisionESt6vectorImSaImEENS_6LayoutE
libinference_engine.so.1:_ZN15InferenceEngine10TensorDescC1ERKNS_9PrecisionESt6vectorImSaImEERKNS_12BlockingDescE
libinference_engine.so.1:_ZN15InferenceEngine10TensorDescC1Ev
libinference_engine.so.1:_ZN15InferenceEngine10TensorDescC2ERKNS_9PrecisionENS_6LayoutE
libinference_engine.so.1:_ZN15InferenceEngine10TensorDescC2ERKNS_9PrecisionESt6vectorImSaImEENS_6LayoutE
libinference_engine.so.1:_ZN15InferenceEngine10TensorDescC2ERKNS_9PrecisionESt6vectorImSaImEERKNS_12BlockingDescE
libinference_engine.so.1:_ZN15InferenceEngine10TensorDescC2Ev
libinference_engine.so.1:_ZN15InferenceEngine10clonelayerERKNS_8CNNLayerE
libinference_engine.so.1:_ZN15InferenceEngine10findPluginERKNS_17FindPluginRequestE
libinference_engine.so.1:_ZN15InferenceEngine10splitGraphERNS_11ICNNNetworkERKSt6vectorINSt7__cxx1112basic_stringIcSt11char_traitsIcESaIcEEESaIS8_EE
libinference_engine.so.1:_ZN15InferenceEngine11copyToFloatIhEEvPfPKNS_4BlobE
libinference_engine.so.1:_ZN15InferenceEngine12BlockingDesc8fillDescERKSt6vectorImSaImEES5_
libinference_engine.so.1:_ZN15InferenceEngine12BlockingDescC1ERKSt6vectorImSaImEENS_6LayoutE
libinference_engine.so.1:_ZN15InferenceEngine12BlockingDescC1ERKSt6vectorImSaImEES5_
libinference_engine.so.1:_ZN15InferenceEngine12BlockingDescC1ERKSt6vectorImSaImEES5_m
libinference_engine.so.1:_ZN15InferenceEngine12BlockingDescC1ERKSt6vectorImSaImEES5_mS3_
libinference_engine.so.1:_ZN15InferenceEngine12BlockingDescC1ERKSt6vectorImSaImEES5_mS3_S3_
libinference_engine.so.1:_ZN15InferenceEngine12BlockingDescC1Ev
libinference_engine.so.1:_ZN15InferenceEngine12BlockingDescC2ERKSt6vectorImSaImEENS_6LayoutE
libinference_engine.so.1:_ZN15InferenceEngine12BlockingDescC2ERKSt6vectorImSaImEES5_
libinference_engine.so.1:_ZN15InferenceEngine12BlockingDescC2ERKSt6vectorImSaImEES5_m
libinference_engine.so.1:_ZN15InferenceEngine12BlockingDescC2ERKSt6vectorImSaImEES5_mS3_
libinference_engine.so.1:_ZN15InferenceEngine12BlockingDescC2ERKSt6vectorImSaImEES5_mS3_S3_
libinference_engine.so.1:_ZN15InferenceEngine12BlockingDescC2Ev
libinference_engine.so.1:_ZN15InferenceEngine12MemorySolver11maxTopDepthEv
libinference_engine.so.1:_ZN15InferenceEngine12MemorySolver5solveEv
libinference_engine.so.1:_ZN15InferenceEngine12MemorySolver8maxDepthEv
libinference_engine.so.1:_ZN15InferenceEngine12MemorySolver9calcDepthEv
libinference_engine.so.1:_ZN15InferenceEngine12MemorySolverC1ESt6vectorINS0_3BoxESaIS2_EE
libinference_engine.so.1:_ZN15InferenceEngine12MemorySolverC2ESt6vectorINS0_3BoxESaIS2_EE
libinference_engine.so.1:_ZN15InferenceEngine12TaskExecutor9startTaskESt10shared_ptrINS_4TaskEE
libinference_engine.so.1:_ZN15InferenceEngine12TaskExecutorC1ENSt7__cxx1112basic_stringIcSt11char_traitsIcESaIcEEE
libinference_engine.so.1:_ZN15InferenceEngine12TaskExecutorC2ENSt7__cxx1112basic_stringIcSt11char_traitsIcESaIcEEE
libinference_engine.so.1:_ZN15InferenceEngine12TaskExecutorD1Ev
libinference_engine.so.1:_ZN15InferenceEngine12TaskExecutorD2Ev
libinference_engine.so.1:_ZN15InferenceEngine13sortSubgraphsERSt6vectorISt13unordered_setISt10shared_ptrINS_8CNNLayerEESt4hashIS4_ESt8equal_toIS4_ESaIS4_EESaISA_EE
libinference_engine.so.1:_ZN15InferenceEngine14PreProcessData10setRoiBlobERKSt10shared_ptrINS_4BlobEE
libinference_engine.so.1:_ZN15InferenceEngine14PreProcessData7executeERSt10shared_ptrINS_4BlobEERKNS_15ResizeAlgorithmE
libinference_engine.so.1:_ZN15InferenceEngine14PrecisionUtils14f16tof32ArraysEPfPKsmff
libinference_engine.so.1:_ZN15InferenceEngine14PrecisionUtils14f32tof16ArraysEPsPKfmff
libinference_engine.so.1:_ZN15InferenceEngine14PrecisionUtils8f16tof32Es
libinference_engine.so.1:_ZN15InferenceEngine14PrecisionUtils8f32tof16Ef
libinference_engine.so.1:_ZN15InferenceEngine14groupSubgraphsERNS_11ICNNNetworkESt8functionIFbRKSt10shared_ptrINS_8CNNLayerEES7_EE
libinference_engine.so.1:_ZN15InferenceEngine14saveGraphToDotERNS_11ICNNNetworkERSoSt8functionIFvSt10shared_ptrINS_8CNNLayerEERSt6vectorISt4pairINSt7__cxx1112basic_stringIcSt11char_traitsIcESaIcEEESE_ESaISF_EESI_EE
libinference_engine.so.1:_ZN15InferenceEngine15ExecutorManager11getExecutorENSt7__cxx1112basic_stringIcSt11char_traitsIcESaIcEEE
libinference_engine.so.1:_ZN15InferenceEngine15ExecutorManager18getExecutorsNumberEv
libinference_engine.so.1:_ZN15InferenceEngine15ExecutorManager5clearEv
libinference_engine.so.1:_ZN15InferenceEngine16CNNLayerMetadata4nameEv
libinference_engine.so.1:_ZN15InferenceEngine16make_shared_blobERKSt10shared_ptrINS_4BlobEERKNS_3ROIE
libinference_engine.so.1:_ZN15InferenceEngine18getRootDataObjectsERNS_11ICNNNetworkE
libinference_engine.so.1:_ZN15InferenceEngine19ExecutorManagerImpl11getExecutorENSt7__cxx1112basic_stringIcSt11char_traitsIcESaIcEEE
libinference_engine.so.1:_ZN15InferenceEngine19ExecutorManagerImpl18getExecutorsNumberEv
libinference_engine.so.1:_ZN15InferenceEngine19ExecutorManagerImpl5clearEv
libinference_engine.so.1:_ZN15InferenceEngine19LayoutOffsetCounter6OffsetESt6vectorImSaImEE
libinference_engine.so.1:_ZN15InferenceEngine19LayoutOffsetCounterC1ENS_6LayoutESt6vectorImSaImEE
libinference_engine.so.1:_ZN15InferenceEngine19LayoutOffsetCounterC2ENS_6LayoutESt6vectorImSaImEE
libinference_engine.so.1:_ZN15InferenceEngine20getNetworkComplexityB5cxx11ERKNS_11ICNNNetworkE
libinference_engine.so.1:_ZN15InferenceEngine21translateNetworkToAdeERN3ade5GraphERNS_11ICNNNetworkE
libinference_engine.so.1:_ZN15InferenceEngine24replaceLayerWithNewLayerERNS_11ICNNNetworkERKSt10shared_ptrINS_8CNNLayerEES6_
libinference_engine.so.1:_ZN15InferenceEngine4Blob14CreateFromDataERKSt10shared_ptrINS_4DataEE
libinference_engine.so.1:_ZN15InferenceEngine4Data10getInputToB5cxx11Ev
libinference_engine.so.1:_ZN15InferenceEngine4Data12setPrecisionERKNS_9PrecisionE
libinference_engine.so.1:_ZN15InferenceEngine4Data15getCreatorLayerEv
libinference_engine.so.1:_ZN15InferenceEngine4Data7setDimsERKSt6vectorImSaImEE
libinference_engine.so.1:_ZN15InferenceEngine4Data9setLayoutENS_6LayoutE
libinference_engine.so.1:_ZN15InferenceEngine4DataC1ERKNSt7__cxx1112basic_stringIcSt11char_traitsIcESaIcEEENS_9PrecisionENS_6LayoutE
libinference_engine.so.1:_ZN15InferenceEngine4DataC1ERKNSt7__cxx1112basic_stringIcSt11char_traitsIcESaIcEEERKNS_10TensorDescE
libinference_engine.so.1:_ZN15InferenceEngine4DataC1ERKNSt7__cxx1112basic_stringIcSt11char_traitsIcESaIcEEERKSt6vectorImSaImEENS_9PrecisionENS_6LayoutE
libinference_engine.so.1:_ZN15InferenceEngine4DataC2ERKNSt7__cxx1112basic_stringIcSt11char_traitsIcESaIcEEENS_9PrecisionENS_6LayoutE
libinference_engine.so.1:_ZN15InferenceEngine4DataC2ERKNSt7__cxx1112basic_stringIcSt11char_traitsIcESaIcEEERKNS_10TensorDescE
libinference_engine.so.1:_ZN15InferenceEngine4DataC2ERKNSt7__cxx1112basic_stringIcSt11char_traitsIcESaIcEEERKSt6vectorImSaImEENS_9PrecisionENS_6LayoutE
libinference_engine.so.1:_ZN15InferenceEngine4Task14checkExceptionEv
libinference_engine.so.1:_ZN15InferenceEngine4Task19runWithSynchronizerERSt10shared_ptrINS_16TaskSynchronizerEE
libinference_engine.so.1:_ZN15InferenceEngine4Task21TaskStatus2StatusCodeENS0_6StatusE
libinference_engine.so.1:_ZN15InferenceEngine4Task21runNoThrowNoBusyCheckEv
libinference_engine.so.1:_ZN15InferenceEngine4Task4waitEl
libinference_engine.so.1:_ZN15InferenceEngine4Task6occupyEv
libinference_engine.so.1:_ZN15InferenceEngine4Task8isOnWaitEv
libinference_engine.so.1:_ZN15InferenceEngine4Task9getStatusEv
libinference_engine.so.1:_ZN15InferenceEngine4Task9setStatusENS0_6StatusE
libinference_engine.so.1:_ZN15InferenceEngine4TaskC1ESt8functionIFvvEE
libinference_engine.so.1:_ZN15InferenceEngine4TaskC1Ev
libinference_engine.so.1:_ZN15InferenceEngine4TaskC2ESt8functionIFvvEE
libinference_engine.so.1:_ZN15InferenceEngine4TaskC2Ev
libinference_engine.so.1:_ZN15InferenceEngine7details12GRNValidator11checkParamsEPKNS_8CNNLayerE
libinference_engine.so.1:_ZN15InferenceEngine7details12GRNValidator11parseParamsEPNS_8CNNLayerE
libinference_engine.so.1:_ZN15InferenceEngine7details12GRNValidatorC1ERKNSt7__cxx1112basic_stringIcSt11char_traitsIcESaIcEEE
libinference_engine.so.1:_ZN15InferenceEngine7details12GRNValidatorC2ERKNSt7__cxx1112basic_stringIcSt11char_traitsIcESaIcEEE
libinference_engine.so.1:_ZN15InferenceEngine7details12MVNValidator11checkParamsEPKNS_8CNNLayerE
libinference_engine.so.1:_ZN15InferenceEngine7details12MVNValidator11parseParamsEPNS_8CNNLayerE
libinference_engine.so.1:_ZN15InferenceEngine7details12MVNValidatorC1ERKNSt7__cxx1112basic_stringIcSt11char_traitsIcESaIcEEE
libinference_engine.so.1:_ZN15InferenceEngine7details12MVNValidatorC2ERKNSt7__cxx1112basic_stringIcSt11char_traitsIcESaIcEEE
libinference_engine.so.1:_ZN15InferenceEngine7details13CropValidator11checkParamsEPKNS_8CNNLayerE
libinference_engine.so.1:_ZN15InferenceEngine7details13CropValidator11parseParamsEPNS_8CNNLayerE
libinference_engine.so.1:_ZN15InferenceEngine7details13CropValidatorC1ERKNSt7__cxx1112basic_stringIcSt11char_traitsIcESaIcEEE
libinference_engine.so.1:_ZN15InferenceEngine7details13CropValidatorC2ERKNSt7__cxx1112basic_stringIcSt11char_traitsIcESaIcEEE
libinference_engine.so.1:_ZN15InferenceEngine7details13NormValidator11checkParamsEPKNS_8CNNLayerE
libinference_engine.so.1:_ZN15InferenceEngine7details13NormValidator11parseParamsEPNS_8CNNLayerE
libinference_engine.so.1:_ZN15InferenceEngine7details13NormValidatorC1ERKNSt7__cxx1112basic_stringIcSt11char_traitsIcESaIcEEE
libinference_engine.so.1:_ZN15InferenceEngine7details13NormValidatorC2ERKNSt7__cxx1112basic_stringIcSt11char_traitsIcESaIcEEE
libinference_engine.so.1:_ZN15InferenceEngine7details13ReLUValidator11checkParamsEPKNS_8CNNLayerE
libinference_engine.so.1:_ZN15InferenceEngine7details13ReLUValidator11parseParamsEPNS_8CNNLayerE
libinference_engine.so.1:_ZN15InferenceEngine7details13ReLUValidatorC1ERKNSt7__cxx1112basic_stringIcSt11char_traitsIcESaIcEEE
libinference_engine.so.1:_ZN15InferenceEngine7details13ReLUValidatorC2ERKNSt7__cxx1112basic_stringIcSt11char_traitsIcESaIcEEE
libinference_engine.so.1:_ZN15InferenceEngine7details13TileValidator11checkParamsEPKNS_8CNNLayerE
libinference_engine.so.1:_ZN15InferenceEngine7details13TileValidator11parseParamsEPNS_8CNNLayerE
libinference_engine.so.1:_ZN15InferenceEngine7details13TileValidatorC1ERKNSt7__cxx1112basic_stringIcSt11char_traitsIcESaIcEEE
libinference_engine.so.1:_ZN15InferenceEngine7details13TileValidatorC2ERKNSt7__cxx1112basic_stringIcSt11char_traitsIcESaIcEEE
libinference_engine.so.1:_ZN15InferenceEngine7details14CNNNetworkImpl12AddExtensionERKSt10shared_ptrINS_20IShapeInferExtensionEEPNS_12ResponseDescE
libinference_engine.so.1:_ZN15InferenceEngine7details14CNNNetworkImpl12setBatchSizeEm
libinference_engine.so.1:_ZN15InferenceEngine7details14CNNNetworkImpl12setBatchSizeEmPNS_12ResponseDescE
libinference_engine.so.1:_ZN15InferenceEngine7details14CNNNetworkImpl13resolveOutputEv
libinference_engine.so.1:_ZN15InferenceEngine7details14CNNNetworkImpl19setBatchSizeReshapeEmPNS_12ResponseDescE
libinference_engine.so.1:_ZN15InferenceEngine7details14CNNNetworkImpl7reshapeERKSt3mapINSt7__cxx1112basic_stringIcSt11char_traitsIcESaIcEEESt6vectorImSaImEESt4lessIS8_ESaISt4pairIKS8_SB_EEEPNS_12ResponseDescE
libinference_engine.so.1:_ZN15InferenceEngine7details14CNNNetworkImpl8addLayerERKSt10shared_ptrINS_8CNNLayerEE
libinference_engine.so.1:_ZN15InferenceEngine7details14CNNNetworkImpl8validateEi
libinference_engine.so.1:_ZN15InferenceEngine7details14CNNNetworkImpl9addOutputERKNSt7__cxx1112basic_stringIcSt11char_traitsIcESaIcEEE
libinference_engine.so.1:_ZN15InferenceEngine7details14CNNNetworkImpl9addOutputERKNSt7__cxx1112basic_stringIcSt11char_traitsIcESaIcEEEmPNS_12ResponseDescE
libinference_engine.so.1:_ZN15InferenceEngine7details14CNNNetworkImplC1Ev
libinference_engine.so.1:_ZN15InferenceEngine7details14CNNNetworkImplC2Ev
libinference_engine.so.1:_ZN15InferenceEngine7details14ClampValidator11checkParamsEPKNS_8CNNLayerE
libinference_engine.so.1:_ZN15InferenceEngine7details14ClampValidator11parseParamsEPNS_8CNNLayerE
libinference_engine.so.1:_ZN15InferenceEngine7details14ClampValidatorC1ERKNSt7__cxx1112basic_stringIcSt11char_traitsIcESaIcEEE
libinference_engine.so.1:_ZN15InferenceEngine7details14ClampValidatorC2ERKNSt7__cxx1112basic_stringIcSt11char_traitsIcESaIcEEE
libinference_engine.so.1:_ZN15InferenceEngine7details14PReLUValidator11checkParamsEPKNS_8CNNLayerE
libinference_engine.so.1:_ZN15InferenceEngine7details14PReLUValidator11parseParamsEPNS_8CNNLayerE
libinference_engine.so.1:_ZN15InferenceEngine7details14PReLUValidatorC1ERKNSt7__cxx1112basic_stringIcSt11char_traitsIcESaIcEEE
libinference_engine.so.1:_ZN15InferenceEngine7details14PReLUValidatorC2ERKNSt7__cxx1112basic_stringIcSt11char_traitsIcESaIcEEE
libinference_engine.so.1:_ZN15InferenceEngine7details14PowerValidator11checkParamsEPKNS_8CNNLayerE
libinference_engine.so.1:_ZN15InferenceEngine7details14PowerValidator11parseParamsEPNS_8CNNLayerE
libinference_engine.so.1:_ZN15InferenceEngine7details14PowerValidatorC1ERKNSt7__cxx1112basic_stringIcSt11char_traitsIcESaIcEEE
libinference_engine.so.1:_ZN15InferenceEngine7details14PowerValidatorC2ERKNSt7__cxx1112basic_stringIcSt11char_traitsIcESaIcEEE
libinference_engine.so.1:_ZN15InferenceEngine7details14SplitValidator11checkParamsEPKNS_8CNNLayerE
libinference_engine.so.1:_ZN15InferenceEngine7details14SplitValidator11parseParamsEPNS_8CNNLayerE
libinference_engine.so.1:_ZN15InferenceEngine7details14SplitValidatorC1ERKNSt7__cxx1112basic_stringIcSt11char_traitsIcESaIcEEE
libinference_engine.so.1:_ZN15InferenceEngine7details14SplitValidatorC2ERKNSt7__cxx1112basic_stringIcSt11char_traitsIcESaIcEEE
libinference_engine.so.1:_ZN15InferenceEngine7details14V2FormatParser10SetWeightsERKSt10shared_ptrINS_5TBlobIhSt9enable_ifILb1EvEEEE
libinference_engine.so.1:_ZN15InferenceEngine7details14V2FormatParser13SetLayerInputERNS0_14CNNNetworkImplERKNSt7__cxx1112basic_stringIcSt11char_traitsIcESaIcEEERSt10shared_ptrINS_8CNNLayerEEi
libinference_engine.so.1:_ZN15InferenceEngine7details14V2FormatParser15ParsePreProcessERN4pugi8xml_nodeE
libinference_engine.so.1:_ZN15InferenceEngine7details14V2FormatParser5ParseERN4pugi8xml_nodeE
libinference_engine.so.1:_ZN15InferenceEngine7details14V2FormatParserC1Ei
libinference_engine.so.1:_ZN15InferenceEngine7details14V2FormatParserC2Ei
libinference_engine.so.1:_ZN15InferenceEngine7details15ConcatValidator11checkParamsEPKNS_8CNNLayerE
libinference_engine.so.1:_ZN15InferenceEngine7details15ConcatValidator11parseParamsEPNS_8CNNLayerE
libinference_engine.so.1:_ZN15InferenceEngine7details15ConcatValidatorC1ERKNSt7__cxx1112basic_stringIcSt11char_traitsIcESaIcEEE
libinference_engine.so.1:_ZN15InferenceEngine7details15ConcatValidatorC2ERKNSt7__cxx1112basic_stringIcSt11char_traitsIcESaIcEEE
libinference_engine.so.1:_ZN15InferenceEngine7details15LayerValidators11getInstanceEv
libinference_engine.so.1:_ZN15InferenceEngine7details15LayerValidators12getValidatorERKNSt7__cxx1112basic_stringIcSt11char_traitsIcESaIcEEE
libinference_engine.so.1:_ZN15InferenceEngine7details15LayerValidators7addImplERKNSt7__cxx1112basic_stringIcSt11char_traitsIcESaIcEEERKSt10shared_ptrINS0_14LayerValidatorEE
libinference_engine.so.1:_ZN15InferenceEngine7details16CNNNetReaderImpl10SetWeightsERKSt10shared_ptrINS_5TBlobIhSt9enable_ifILb1EvEEEEPNS_12ResponseDescE
libinference_engine.so.1:_ZN15InferenceEngine7details16CNNNetReaderImpl11ReadNetworkEPKcPNS_12ResponseDescE
libinference_engine.so.1:_ZN15InferenceEngine7details16CNNNetReaderImpl11ReadNetworkEPKvmPNS_12ResponseDescE
libinference_engine.so.1:_ZN15InferenceEngine7details16CNNNetReaderImpl11ReadNetworkERN4pugi12xml_documentE
libinference_engine.so.1:_ZN15InferenceEngine7details16CNNNetReaderImpl11ReadWeightsEPKcPNS_12ResponseDescE
libinference_engine.so.1:_ZN15InferenceEngine7details16CNNNetReaderImpl14GetFileVersionERN4pugi8xml_nodeE
libinference_engine.so.1:_ZN15InferenceEngine7details16CNNNetReaderImpl16NameFromFilePathB5cxx11EPKc
libinference_engine.so.1:_ZN15InferenceEngine7details16CNNNetReaderImplC1ERKSt10shared_ptrINS0_19FormatParserCreatorEE
libinference_engine.so.1:_ZN15InferenceEngine7details16CNNNetReaderImplC2ERKSt10shared_ptrINS0_19FormatParserCreatorEE
libinference_engine.so.1:_ZN15InferenceEngine7details16EltwiseValidator11checkParamsEPKNS_8CNNLayerE
libinference_engine.so.1:_ZN15InferenceEngine7details16EltwiseValidator11parseParamsEPNS_8CNNLayerE
libinference_engine.so.1:_ZN15InferenceEngine7details16EltwiseValidatorC1ERKNSt7__cxx1112basic_stringIcSt11char_traitsIcESaIcEEE
libinference_engine.so.1:_ZN15InferenceEngine7details16EltwiseValidatorC2ERKNSt7__cxx1112basic_stringIcSt11char_traitsIcESaIcEEE
libinference_engine.so.1:_ZN15InferenceEngine7details16GeneralValidatorC1ERKNSt7__cxx1112basic_stringIcSt11char_traitsIcESaIcEEE
libinference_engine.so.1:_ZN15InferenceEngine7details16GeneralValidatorC2ERKNSt7__cxx1112basic_stringIcSt11char_traitsIcESaIcEEE
libinference_engine.so.1:_ZN15InferenceEngine7details16PoolingValidator11checkParamsEPKNS_8CNNLayerE
libinference_engine.so.1:_ZN15InferenceEngine7details16PoolingValidator11parseParamsEPNS_8CNNLayerE
libinference_engine.so.1:_ZN15InferenceEngine7details16PoolingValidatorC1ERKNSt7__cxx1112basic_stringIcSt11char_traitsIcESaIcEEE
libinference_engine.so.1:_ZN15InferenceEngine7details16PoolingValidatorC2ERKNSt7__cxx1112basic_stringIcSt11char_traitsIcESaIcEEE
libinference_engine.so.1:_ZN15InferenceEngine7details16ReshapeValidator11checkParamsEPKNS_8CNNLayerE
libinference_engine.so.1:_ZN15InferenceEngine7details16ReshapeValidator11parseParamsEPNS_8CNNLayerE
libinference_engine.so.1:_ZN15InferenceEngine7details16ReshapeValidator15calculateIn2OutEPNS_12ReshapeLayerE
libinference_engine.so.1:_ZN15InferenceEngine7details16ReshapeValidatorC1ERKNSt7__cxx1112basic_stringIcSt11char_traitsIcESaIcEEE
libinference_engine.so.1:_ZN15InferenceEngine7details16ReshapeValidatorC2ERKNSt7__cxx1112basic_stringIcSt11char_traitsIcESaIcEEE
libinference_engine.so.1:_ZN15InferenceEngine7details16SoftMaxValidator11checkParamsEPKNS_8CNNLayerE
libinference_engine.so.1:_ZN15InferenceEngine7details16SoftMaxValidator11parseParamsEPNS_8CNNLayerE
libinference_engine.so.1:_ZN15InferenceEngine7details16SoftMaxValidatorC1ERKNSt7__cxx1112basic_stringIcSt11char_traitsIcESaIcEEE
libinference_engine.so.1:_ZN15InferenceEngine7details16SoftMaxValidatorC2ERKNSt7__cxx1112basic_stringIcSt11char_traitsIcESaIcEEE
libinference_engine.so.1:_ZN15InferenceEngine7details19CNNNetworkStatsImpl12LoadFromFileERKNSt7__cxx1112basic_stringIcSt11char_traitsIcESaIcEEES9_
libinference_engine.so.1:_ZN15InferenceEngine7details19ScaleShiftValidator11checkParamsEPKNS_8CNNLayerE
libinference_engine.so.1:_ZN15InferenceEngine7details19ScaleShiftValidator11parseParamsEPNS_8CNNLayerE
libinference_engine.so.1:_ZN15InferenceEngine7details19ScaleShiftValidatorC1ERKNSt7__cxx1112basic_stringIcSt11char_traitsIcESaIcEEE
libinference_engine.so.1:_ZN15InferenceEngine7details19ScaleShiftValidatorC2ERKNSt7__cxx1112basic_stringIcSt11char_traitsIcESaIcEEE
libinference_engine.so.1:_ZN15InferenceEngine7details20ConvolutionValidator11checkParamsEPKNS_8CNNLayerE
libinference_engine.so.1:_ZN15InferenceEngine7details20ConvolutionValidator11parseParamsEPNS_8CNNLayerE
libinference_engine.so.1:_ZN15InferenceEngine7details20ConvolutionValidatorC1ERKNSt7__cxx1112basic_stringIcSt11char_traitsIcESaIcEEE
libinference_engine.so.1:_ZN15InferenceEngine7details20ConvolutionValidatorC2ERKNSt7__cxx1112basic_stringIcSt11char_traitsIcESaIcEEE
libinference_engine.so.1:_ZN15InferenceEngine7details20LayerParseParameters12addInputPortERKNS1_13LayerPortDataE
libinference_engine.so.1:_ZN15InferenceEngine7details20LayerParseParameters13addOutputPortERKNS1_13LayerPortDataE
libinference_engine.so.1:_ZN15InferenceEngine7details21V2FormatParserCreator6createEi
libinference_engine.so.1:_ZN15InferenceEngine7details22ActivationLayerCreator11CreateLayerERN4pugi8xml_nodeERNS0_20LayerParseParametersE
libinference_engine.so.1:_ZN15InferenceEngine7details22DeconvolutionValidator11checkParamsEPKNS_8CNNLayerE
libinference_engine.so.1:_ZN15InferenceEngine7details22DeconvolutionValidator11parseParamsEPNS_8CNNLayerE
libinference_engine.so.1:_ZN15InferenceEngine7details22DeconvolutionValidatorC1ERKNSt7__cxx1112basic_stringIcSt11char_traitsIcESaIcEEE
libinference_engine.so.1:_ZN15InferenceEngine7details22DeconvolutionValidatorC2ERKNSt7__cxx1112basic_stringIcSt11char_traitsIcESaIcEEE
libinference_engine.so.1:_ZN15InferenceEngine7details23FullyConnectedValidator11checkParamsEPKNS_8CNNLayerE
libinference_engine.so.1:_ZN15InferenceEngine7details23FullyConnectedValidator11parseParamsEPNS_8CNNLayerE
libinference_engine.so.1:_ZN15InferenceEngine7details23FullyConnectedValidatorC1ERKNSt7__cxx1112basic_stringIcSt11char_traitsIcESaIcEEE
libinference_engine.so.1:_ZN15InferenceEngine7details23FullyConnectedValidatorC2ERKNSt7__cxx1112basic_stringIcSt11char_traitsIcESaIcEEE
libinference_engine.so.1:_ZN15InferenceEngine7details24CNNNetworkInt8Normalizer13ConvertToInt8EiiRNS_10CNNNetworkERKSt3mapINSt7__cxx1112basic_stringIcSt11char_traitsIcESaIcEEESt10shared_ptrINS_16NetworkNodeStatsEESt4lessISA_ESaISt4pairIKSA_SD_EEE
libinference_engine.so.1:_ZN15InferenceEngine7details24CNNNetworkInt8Normalizer15ScaleDataToInt8EPKfmSt10shared_ptrINS_4BlobEEfRKSt6vectorIfSaIfEE
libinference_engine.so.1:_ZN15InferenceEngine7details24CNNNetworkInt8Normalizer16NormalizeNetworkERNS_11ICNNNetworkERNS_16ICNNNetworkStatsE
libinference_engine.so.1:_ZN15InferenceEngine7details24CNNNetworkInt8Normalizer20AddLayerToCNNNetworkERNS_10CNNNetworkESt10shared_ptrINS_8CNNLayerEES6_S6_
libinference_engine.so.1:_ZN15InferenceEngine7details24CNNNetworkInt8Normalizer31AddScaleShiftBeforeAndAfterInt8ERNS_10CNNNetworkE
libinference_engine.so.1:_ZN15InferenceEngine7details27BatchNormalizationValidator11checkParamsEPKNS_8CNNLayerE
libinference_engine.so.1:_ZN15InferenceEngine7details27BatchNormalizationValidator11parseParamsEPNS_8CNNLayerE
libinference_engine.so.1:_ZN15InferenceEngine7details27BatchNormalizationValidatorC1ERKNSt7__cxx1112basic_stringIcSt11char_traitsIcESaIcEEE
libinference_engine.so.1:_ZN15InferenceEngine7details27BatchNormalizationValidatorC2ERKNSt7__cxx1112basic_stringIcSt11char_traitsIcESaIcEEE
libinference_engine.so.1:_ZN15InferenceEngine8CNNLayer13validateLayerEv
libinference_engine.so.1:_ZN15InferenceEngine8cloneNetERKNS_11ICNNNetworkE
libinference_engine.so.1:_ZN15InferenceEngine8cloneNetERKSt6vectorISt10shared_ptrINS_8CNNLayerEESaIS3_EESt8functionIFS3_RKS2_EE
libinference_engine.so.1:_ZN15InferenceEngine8traverse7forwardERKSt10shared_ptrINS_8CNNLayerEERSt5dequeIS3_SaIS3_EE
libinference_engine.so.1:_ZN15InferenceEngine8traverse8backwardERKSt10shared_ptrINS_8CNNLayerEERSt5dequeIS3_SaIS3_EE
libinference_engine.so.1:_ZN15InferenceEngine8traverse8traverseERNS_11ICNNNetworkESt8functionIFvRSt10shared_ptrINS_8CNNLayerEEEES3_IFvRKS6_RSt5dequeIS6_SaIS6_EEEE
libinference_engine.so.1:_ZN15InferenceEngine9cloneDataERKNS_4DataE
libinference_engine.so.1:_ZN3ade10MetadataIdC1EPv
libinference_engine.so.1:_ZN3ade10MetadataIdC2EPv
libinference_engine.so.1:_ZN3ade16assembleSubgraphERKNS_6HandleINS_4NodeEEEN4util8func_refIFbRKNS0_INS_4EdgeEEENS_22SubgraphMergeDirectionEEEENS6_IFbRKSt13unordered_setIS2_NS_12HandleHasherIS1_EESt8equal_toIS2_ESaIS2_EESM_EEE
libinference_engine.so.1:_ZN3ade28SubgraphSelfReferenceChecker11updateCacheERKSt4pairINS_6HandleINS_4NodeEEES4_E
libinference_engine.so.1:_ZN3ade28SubgraphSelfReferenceChecker5resetEv
libinference_engine.so.1:_ZN3ade28SubgraphSelfReferenceCheckerclERKSt13unordered_setINS_6HandleINS_4NodeEEENS_12HandleHasherIS3_EESt8equal_toIS4_ESaIS4_EESC_
libinference_engine.so.1:_ZN3ade3dfsERKNS_6HandleINS_4NodeEEEN4util8func_refIFbS4_EEENS6_IFvRKS1_NS6_IFvS4_EEEEEE
libinference_engine.so.1:_ZN3ade4Edge13resetNextNodeEPNS_4NodeE
libinference_engine.so.1:_ZN3ade4Edge13resetPrevNodeEPNS_4NodeE
libinference_engine.so.1:_ZN3ade4Edge6unlinkEv
libinference_engine.so.1:_ZN3ade4EdgeC1EPNS_4NodeES2_
libinference_engine.so.1:_ZN3ade4EdgeC2EPNS_4NodeES2_
libinference_engine.so.1:_ZN3ade4EdgeD1Ev
libinference_engine.so.1:_ZN3ade4EdgeD2Ev
libinference_engine.so.1:_ZN3ade4Node10addOutEdgeEPNS_4EdgeE
libinference_engine.so.1:_ZN3ade4Node12removeInEdgeEPNS_4EdgeE
libinference_engine.so.1:_ZN3ade4Node13removeOutEdgeEPNS_4EdgeE
libinference_engine.so.1:_ZN3ade4Node6unlinkEv
libinference_engine.so.1:_ZN3ade4Node7inEdgesEv
libinference_engine.so.1:_ZN3ade4Node7inNodesEv
libinference_engine.so.1:_ZN3ade4Node8outEdgesEv
libinference_engine.so.1:_ZN3ade4Node8outNodesEv
libinference_engine.so.1:_ZN3ade4Node9addInEdgeEPNS_4EdgeE
libinference_engine.so.1:_ZN3ade4NodeC1EPNS_5GraphE
libinference_engine.so.1:_ZN3ade4NodeC2EPNS_5GraphE
libinference_engine.so.1:_ZN3ade4NodeD1Ev
libinference_engine.so.1:_ZN3ade4NodeD2Ev
libinference_engine.so.1:_ZN3ade5Graph10createEdgeEPNS_4NodeES2_
libinference_engine.so.1:_ZN3ade5Graph10createNodeEv
libinference_engine.so.1:_ZN3ade5Graph10removeEdgeEPNS_4EdgeE
libinference_engine.so.1:_ZN3ade5Graph10removeNodeEPNS_4NodeE
libinference_engine.so.1:_ZN3ade5Graph11setListenerEPNS_14IGraphListenerE
libinference_engine.so.1:_ZN3ade5Graph4linkERKNS_6HandleINS_4EdgeEEERKNS1_INS_4NodeEEE
libinference_engine.so.1:_ZN3ade5Graph4linkERKNS_6HandleINS_4NodeEEERKNS1_INS_4EdgeEEE
libinference_engine.so.1:_ZN3ade5Graph4linkERKNS_6HandleINS_4NodeEEES5_
libinference_engine.so.1:_ZN3ade5Graph5eraseERKNS_6HandleINS_4EdgeEEE
libinference_engine.so.1:_ZN3ade5Graph5eraseERKNS_6HandleINS_4NodeEEE
libinference_engine.so.1:_ZN3ade5Graph5nodesEv
libinference_engine.so.1:_ZN3ade5Graph6unlinkERKNS_6HandleINS_4NodeEEE
libinference_engine.so.1:_ZN3ade5Graph8metadataENS_6HandleINS_4EdgeEEE
libinference_engine.so.1:_ZN3ade5Graph8metadataENS_6HandleINS_4NodeEEE
libinference_engine.so.1:_ZN3ade5Graph8metadataEv
libinference_engine.so.1:_ZN3ade5GraphC1Ev
libinference_engine.so.1:_ZN3ade5GraphC2Ev
libinference_engine.so.1:_ZN3ade5GraphD1Ev
libinference_engine.so.1:_ZN3ade5GraphD2Ev
libinference_engine.so.1:_ZN3ade8Metadata3allEv
libinference_engine.so.1:_ZN3ade8Metadata5eraseERKNS_10MetadataIdE
libinference_engine.so.1:_ZN3ade8Metadata8copyFromERKS0_
libinference_engine.so.1:_ZN3ade8MetadataC1Ev
libinference_engine.so.1:_ZN3ade8MetadataC2Ev
libinference_engine.so.1:_ZN3ade8MetadataixERKNS_10MetadataIdE
libinference_engine.so.1:_ZN3ade9findPathsERKNS_6HandleINS_4NodeEEES4_N4util8func_refIFbRKSt6vectorIS2_SaIS2_EEEEE
libinference_engine.so.1:_ZN3adeeqEDnRKNS_10MetadataIdE
libinference_engine.so.1:_ZN3adeeqERKNS_10MetadataIdEDn
libinference_engine.so.1:_ZN3adeneEDnRKNS_10MetadataIdE
libinference_engine.so.1:_ZN3adeneERKNS_10MetadataIdEDn
libinference_engine.so.1:_ZN9FileUtils11readAllFileERKNSt7__cxx1112basic_stringIcSt11char_traitsIcESaIcEEEPvm
libinference_engine.so.1:_ZN9FileUtils13fileNameNoExtERKNSt7__cxx1112basic_stringIcSt11char_traitsIcESaIcEEE
libinference_engine.so.1:_ZN9FileUtils15isSharedLibraryERKNSt7__cxx1112basic_stringIcSt11char_traitsIcESaIcEEE
libinference_engine.so.1:_ZN9FileUtils7fileExtB5cxx11EPKc
libinference_engine.so.1:_ZN9FileUtils7fileExtERKNSt7__cxx1112basic_stringIcSt11char_traitsIcESaIcEEE
libinference_engine.so.1:_ZN9FileUtils8fileSizeEPKc
libinference_engine.so.1:_ZN9FileUtils8folderOfERKNSt7__cxx1112basic_stringIcSt11char_traitsIcESaIcEEE
libinference_engine.so.1:_ZN9FileUtils8makePathERKNSt7__cxx1112basic_stringIcSt11char_traitsIcESaIcEEES7_
libinference_engine.so.1:_ZNK15InferenceEngine10ShapeInfer15ReshapeLauncher12getLayerNameB5cxx11Ev
libinference_engine.so.1:_ZNK15InferenceEngine10ShapeInfer15ReshapeLauncher12getLayerTypeB5cxx11Ev
libinference_engine.so.1:_ZNK15InferenceEngine10ShapeInfer15ReshapeLauncher8getLayerEv
libinference_engine.so.1:_ZNK15InferenceEngine10ShapeInfer8Reshaper22getLauncherByLayerNameERKNSt7__cxx1112basic_stringIcSt11char_traitsIcESaIcEEE
libinference_engine.so.1:_ZNK15InferenceEngine10TensorDesc6offsetERKSt6vectorImSaImEE
libinference_engine.so.1:_ZNK15InferenceEngine10TensorDesc6offsetEm
libinference_engine.so.1:_ZNK15InferenceEngine10TensorDesceqERKS0_
libinference_engine.so.1:_ZNK15InferenceEngine10TensorDescneERKS0_
libinference_engine.so.1:_ZNK15InferenceEngine12BlockingDesceqERKS0_
libinference_engine.so.1:_ZNK15InferenceEngine12BlockingDescneERKS0_
libinference_engine.so.1:_ZNK15InferenceEngine12MemorySolver9getOffsetEi
libinference_engine.so.1:_ZNK15InferenceEngine14PreProcessData10getRoiBlobEv
libinference_engine.so.1:_ZNK15InferenceEngine4Data12getPrecisionEv
libinference_engine.so.1:_ZNK15InferenceEngine4Data13getTensorDescEv
libinference_engine.so.1:_ZNK15InferenceEngine4Data13getUserObjectEv
libinference_engine.so.1:_ZNK15InferenceEngine4Data13isInitializedEv
libinference_engine.so.1:_ZNK15InferenceEngine4Data7getDimsEv
libinference_engine.so.1:_ZNK15InferenceEngine4Data7getNameB5cxx11Ev
libinference_engine.so.1:_ZNK15InferenceEngine4Data9getLayoutEv
libinference_engine.so.1:_ZNK15InferenceEngine7details13CropValidator11checkShapesEPKNS_8CNNLayerERKSt6vectorIS5_ImSaImEESaIS7_EE
libinference_engine.so.1:_ZNK15InferenceEngine7details14CNNNetworkImpl12getBatchSizeEv
libinference_engine.so.1:_ZNK15InferenceEngine7details14CNNNetworkImpl13getInputsInfoERSt3mapINSt7__cxx1112basic_stringIcSt11char_traitsIcESaIcEEESt10shared_ptrINS_9InputInfoEESt4lessIS8_ESaISt4pairIKS8_SB_EEE
libinference_engine.so.1:_ZNK15InferenceEngine7details14CNNNetworkImpl14getLayerByNameEPKcRSt10shared_ptrINS_8CNNLayerEEPNS_12ResponseDescE
libinference_engine.so.1:_ZNK15InferenceEngine7details14CNNNetworkImpl14getOutputsInfoERSt3mapINSt7__cxx1112basic_stringIcSt11char_traitsIcESaIcEEESt10shared_ptrINS_4DataEESt4lessIS8_ESaISt4pairIKS8_SB_EEE
libinference_engine.so.1:_ZNK15InferenceEngine7details14V2FormatParser11CreateLayerERN4pugi8xml_nodeERNS0_20LayerParseParametersE
libinference_engine.so.1:_ZNK15InferenceEngine7details14V2FormatParser11getCreatorsEv
libinference_engine.so.1:_ZNK15InferenceEngine7details14V2FormatParser14ParseInputDataERN4pugi8xml_nodeE
libinference_engine.so.1:_ZNK15InferenceEngine7details14V2FormatParser18GetBlobFromSegmentERKSt10shared_ptrINS_5TBlobIhSt9enable_ifILb1EvEEEERKNS0_13WeightSegmentE
libinference_engine.so.1:_ZNK15InferenceEngine7details14V2FormatParser18ParseGenericParamsERN4pugi8xml_nodeERNS0_20LayerParseParametersE
libinference_engine.so.1:_ZNK15InferenceEngine7details14V2FormatParser9ParseDimsERSt6vectorImSaImEERKN4pugi8xml_nodeE
libinference_engine.so.1:_ZNK15InferenceEngine7details14V2FormatParser9ParsePortERNS0_20LayerParseParameters13LayerPortDataERN4pugi8xml_nodeE
libinference_engine.so.1:_ZNK15InferenceEngine7details19CNNNetworkStatsImpl10SaveToFileERKNSt7__cxx1112basic_stringIcSt11char_traitsIcESaIcEEES9_
libinference_engine.so.1:_ZNK15InferenceEngine7details20ConvolutionValidator19checkCorrespondenceEPKNS_8CNNLayerERKSt3mapINSt7__cxx1112basic_stringIcSt11char_traitsIcESaIcEEESt10shared_ptrINS_4BlobEESt4lessISB_ESaISt4pairIKSB_SE_EEERKSt6vectorISO_ImSaImEESaISQ_EE
libinference_engine.so.1:_ZNK15InferenceEngine7details22DeconvolutionValidator19checkCorrespondenceEPKNS_8CNNLayerERKSt3mapINSt7__cxx1112basic_stringIcSt11char_traitsIcESaIcEEESt10shared_ptrINS_4BlobEESt4lessISB_ESaISt4pairIKSB_SE_EEERKSt6vectorISO_ImSaImEESaISQ_EE
libinference_engine.so.1:_ZNK15InferenceEngine7details23FullyConnectedValidator19checkCorrespondenceEPKNS_8CNNLayerERKSt3mapINSt7__cxx1112basic_stringIcSt11char_traitsIcESaIcEEESt10shared_ptrINS_4BlobEESt4lessISB_ESaISt4pairIKSB_SE_EEERKSt6vectorISO_ImSaImEESaISQ_EE
libinference_engine.so.1:_ZNK3ade10MetadataId6isNullEv
libinference_engine.so.1:_ZNK3ade10MetadataIdeqERKS0_
libinference_engine.so.1:_ZNK3ade10MetadataIdneERKS0_
libinference_engine.so.1:_ZNK3ade28SubgraphSelfReferenceChecker6HasherclERKSt4pairINS_6HandleINS_4NodeEEES5_E
libinference_engine.so.1:_ZNK3ade4Edge7dstNodeEv
libinference_engine.so.1:_ZNK3ade4Edge7srcNodeEv
libinference_engine.so.1:_ZNK3ade4Edge9getParentEv
libinference_engine.so.1:_ZNK3ade4Node12HandleMapperclEPNS_4EdgeE
libinference_engine.so.1:_ZNK3ade4Node12InEdgeMapperclERKNS_6HandleINS_4EdgeEEE
libinference_engine.so.1:_ZNK3ade4Node13OutEdgeMapperclERKNS_6HandleINS_4EdgeEEE
libinference_engine.so.1:_ZNK3ade4Node7inEdgesEv
libinference_engine.so.1:_ZNK3ade4Node7inNodesEv
libinference_engine.so.1:_ZNK3ade4Node8outEdgesEv
libinference_engine.so.1:_ZNK3ade4Node8outNodesEv
libinference_engine.so.1:_ZNK3ade4Node9getParentEv
libinference_engine.so.1:_ZNK3ade5Graph11ElemDeleterclEPNS_4EdgeE
libinference_engine.so.1:_ZNK3ade5Graph11ElemDeleterclEPNS_4NodeE
libinference_engine.so.1:_ZNK3ade5Graph11getListenerEv
libinference_engine.so.1:_ZNK3ade5Graph13getMetadataIdERKNSt7__cxx1112basic_stringIcSt11char_traitsIcESaIcEEE
libinference_engine.so.1:_ZNK3ade5Graph14geMetadataImplEPv
libinference_engine.so.1:_ZNK3ade5Graph5nodesEv
libinference_engine.so.1:_ZNK3ade5Graph8metadataENS_6HandleINS_4EdgeEEE
libinference_engine.so.1:_ZNK3ade5Graph8metadataENS_6HandleINS_4NodeEEE
libinference_engine.so.1:_ZNK3ade5Graph8metadataEv
libinference_engine.so.1:_ZNK3ade7details23TransitiveClosureHelperclERSt13unordered_mapINS_6HandleINS_4NodeEEESt13unordered_setIS5_NS_12HandleHasherIS4_EESt8equal_toIS5_ESaIS5_EES8_SA_SaISt4pairIKS5_SC_EEERSE_N4util8func_refIFvRKS4_NSL_IFvSJ_EEEEEE
libinference_engine.so.1:_ZNK3ade8Metadata3allEv
libinference_engine.so.1:_ZNK3ade8Metadata6IdHashclERKNS_10MetadataIdE
libinference_engine.so.1:_ZNK3ade8Metadata8containsERKNS_10MetadataIdE
libinference_engine.so.1:findPlugin
